; Function Attrs: nounwind uwtable
define range(i32 0, -2147483648) i32 @Wlc_NtkCreateLevels_(ptr noundef captures(none) %0) local_unnamed_addr #3 {
  %2 = getelementptr inbounds nuw i8, ptr %0, i64 784
  %3 = getelementptr i8, ptr %0, i64 648
  %.val25 = load i32, ptr %3, align 8
  %4 = load i32, ptr %2, align 8
  %.not.i.i = icmp slt i32 %4, %.val25
  br i1 %.not.i.i, label %5, label %Vec_IntGrow.exit.i

5:                                                ; preds = %1
  %6 = getelementptr inbounds nuw i8, ptr %0, i64 792
  %7 = load ptr, ptr %6, align 8
  %.not9.i.i = icmp eq ptr %7, null
  %8 = sext i32 %.val25 to i64
  %9 = shl nsw i64 %8, 2
  br i1 %.not9.i.i, label %12, label %10

10:                                               ; preds = %5
  %11 = tail call ptr @realloc(ptr noundef nonnull %7, i64 noundef %9) #27
  br label %14

12:                                               ; preds = %5
  %13 = tail call noalias ptr @malloc(i64 noundef %9) #26
  br label %14

14:                                               ; preds = %12, %10
  %15 = phi ptr [ %11, %10 ], [ %13, %12 ]
  store ptr %15, ptr %6, align 8
  store i32 %.val25, ptr %2, align 8
  br label %Vec_IntGrow.exit.i

Vec_IntGrow.exit.i:                               ; preds = %14, %1
  %16 = icmp sgt i32 %.val25, 0
  br i1 %16, label %.lr.ph.i, label %Vec_IntFill.exit

.lr.ph.i:                                         ; preds = %Vec_IntGrow.exit.i
  %17 = getelementptr inbounds nuw i8, ptr %0, i64 792
  %wide.trip.count.i = zext nneg i32 %.val25 to i64
  br label %18

18:                                               ; preds = %18, %.lr.ph.i
  %indvars.iv.i = phi i64 [ 0, %.lr.ph.i ], [ %indvars.iv.next.i, %18 ]
  %19 = load ptr, ptr %17, align 8
  %20 = getelementptr inbounds nuw i32, ptr %19, i64 %indvars.iv.i
  store i32 0, ptr %20, align 4
  %indvars.iv.next.i = add nuw nsw i64 %indvars.iv.i, 1
  %exitcond.not.i = icmp eq i64 %indvars.iv.next.i, %wide.trip.count.i
  br i1 %exitcond.not.i, label %Vec_IntFill.exit, label %18, !llvm.loop !7

Vec_IntFill.exit:                                 ; preds = %18, %Vec_IntGrow.exit.i
  %21 = getelementptr inbounds nuw i8, ptr %0, i64 788
  store i32 %.val25, ptr %21, align 4
  %.val2638 = load i32, ptr %3, align 8
  %22 = icmp sgt i32 %.val2638, 1
  br i1 %22, label %.lr.ph41, label %.critedge

.lr.ph41:                                         ; preds = %Vec_IntFill.exit
  %23 = getelementptr i8, ptr %0, i64 640
  %24 = getelementptr i8, ptr %0, i64 792
  br label %25

25:                                               ; preds = %.lr.ph41, %.critedge2
  %indvars.iv59 = phi i64 [ 1, %.lr.ph41 ], [ %indvars.iv.next60, %.critedge2 ]
  %.040 = phi i32 [ 0, %.lr.ph41 ], [ %57, %.critedge2 ]
  %.val = load ptr, ptr %23, align 8
  %26 = getelementptr inbounds nuw %struct.Wlc_Obj_t_, ptr %.val, i64 %indvars.iv59
  %27 = getelementptr i8, ptr %26, i64 4
  %.val27 = load i32, ptr %27, align 4
  %28 = icmp sgt i32 %.val27, 0
  %.val29.pre = load ptr, ptr %24, align 8
  br i1 %28, label %.lr.ph, label %.critedge2

.lr.ph:                                           ; preds = %25
  %29 = icmp samesign ugt i32 %.val27, 2
  %30 = getelementptr inbounds nuw i8, ptr %26, i64 16
  br i1 %29, label %.lr.ph.split.us, label %.lr.ph.split

.lr.ph.split.us:                                  ; preds = %.lr.ph
  %31 = load ptr, ptr %30, align 8
  %wide.trip.count57 = zext nneg i32 %.val27 to i64
  br label %Wlc_ObjHasArray.exit.thread.i.i.us

Wlc_ObjHasArray.exit.thread.i.i.us:               ; preds = %Wlc_ObjHasArray.exit.thread.i.i.us, %.lr.ph.split.us
  %indvars.iv54 = phi i64 [ %indvars.iv.next55, %Wlc_ObjHasArray.exit.thread.i.i.us ], [ 0, %.lr.ph.split.us ]
  %.02231.us = phi i32 [ %38, %Wlc_ObjHasArray.exit.thread.i.i.us ], [ 0, %.lr.ph.split.us ]
  %32 = getelementptr inbounds nuw i32, ptr %31, i64 %indvars.iv54
  %33 = load i32, ptr %32, align 4
  %34 = sext i32 %33 to i64
  %35 = getelementptr inbounds i32, ptr %.val29.pre, i64 %34
  %36 = load i32, ptr %35, align 4
  %37 = add nsw i32 %36, 1
  %38 = tail call noundef i32 @llvm.smax.i32(i32 %.02231.us, i32 %37)
  %indvars.iv.next55 = add nuw nsw i64 %indvars.iv54, 1
  %exitcond58.not = icmp eq i64 %indvars.iv.next55, %wide.trip.count57
  br i1 %exitcond58.not, label %.critedge2, label %Wlc_ObjHasArray.exit.thread.i.i.us, !llvm.loop !8

.lr.ph.split:                                     ; preds = %.lr.ph
  %39 = load i16, ptr %26, align 8
  %40 = and i16 %39, 63
  switch i16 %40, label %Wlc_ObjFaninId.exit.preheader [
    i16 6, label %.lr.ph.split.split.us
    i16 22, label %.lr.ph.split.split.us
  ]

Wlc_ObjFaninId.exit.preheader:                    ; preds = %.lr.ph.split
  %wide.trip.count52 = zext nneg i32 %.val27 to i64
  br label %Wlc_ObjFaninId.exit

.lr.ph.split.split.us:                            ; preds = %.lr.ph.split, %.lr.ph.split
  %41 = load ptr, ptr %30, align 8
  %wide.trip.count = zext nneg i32 %.val27 to i64
  br label %Wlc_ObjHasArray.exit.thread.i.i.us34

Wlc_ObjHasArray.exit.thread.i.i.us34:             ; preds = %Wlc_ObjHasArray.exit.thread.i.i.us34, %.lr.ph.split.split.us
  %indvars.iv = phi i64 [ %indvars.iv.next, %Wlc_ObjHasArray.exit.thread.i.i.us34 ], [ 0, %.lr.ph.split.split.us ]
  %.02231.us32 = phi i32 [ %48, %Wlc_ObjHasArray.exit.thread.i.i.us34 ], [ 0, %.lr.ph.split.split.us ]
  %42 = getelementptr inbounds nuw i32, ptr %41, i64 %indvars.iv
  %43 = load i32, ptr %42, align 4
  %44 = sext i32 %43 to i64
  %45 = getelementptr inbounds i32, ptr %.val29.pre, i64 %44
  %46 = load i32, ptr %45, align 4
  %47 = add nsw i32 %46, 1
  %48 = tail call noundef i32 @llvm.smax.i32(i32 %.02231.us32, i32 %47)
  %indvars.iv.next = add nuw nsw i64 %indvars.iv, 1
  %exitcond.not = icmp eq i64 %indvars.iv.next, %wide.trip.count
  br i1 %exitcond.not, label %.critedge2, label %Wlc_ObjHasArray.exit.thread.i.i.us34, !llvm.loop !8

Wlc_ObjFaninId.exit:                              ; preds = %Wlc_ObjFaninId.exit.preheader, %Wlc_ObjFaninId.exit
  %indvars.iv49 = phi i64 [ 0, %Wlc_ObjFaninId.exit.preheader ], [ %indvars.iv.next50, %Wlc_ObjFaninId.exit ]
  %.02231 = phi i32 [ 0, %Wlc_ObjFaninId.exit.preheader ], [ %55, %Wlc_ObjFaninId.exit ]
  %49 = getelementptr inbounds nuw i32, ptr %30, i64 %indvars.iv49
  %50 = load i32, ptr %49, align 4
  %51 = sext i32 %50 to i64
  %52 = getelementptr inbounds i32, ptr %.val29.pre, i64 %51
  %53 = load i32, ptr %52, align 4
  %54 = add nsw i32 %53, 1
  %55 = tail call noundef i32 @llvm.smax.i32(i32 %.02231, i32 %54)
  %indvars.iv.next50 = add nuw nsw i64 %indvars.iv49, 1
  %exitcond53.not = icmp eq i64 %indvars.iv.next50, %wide.trip.count52
  br i1 %exitcond53.not, label %.critedge2, label %Wlc_ObjFaninId.exit, !llvm.loop !8

.critedge2:                                       ; preds = %Wlc_ObjHasArray.exit.thread.i.i.us34, %Wlc_ObjFaninId.exit, %Wlc_ObjHasArray.exit.thread.i.i.us, %25
  %.022.lcssa = phi i32 [ 0, %25 ], [ %38, %Wlc_ObjHasArray.exit.thread.i.i.us ], [ %55, %Wlc_ObjFaninId.exit ], [ %48, %Wlc_ObjHasArray.exit.thread.i.i.us34 ]
  %56 = getelementptr inbounds nuw i32, ptr %.val29.pre, i64 %indvars.iv59
  store i32 %.022.lcssa, ptr %56, align 4
  %57 = tail call noundef i32 @llvm.smax.i32(i32 %.040, i32 %.022.lcssa)
  %indvars.iv.next60 = add nuw nsw i64 %indvars.iv59, 1
  %.val26 = load i32, ptr %3, align 8
  %58 = sext i32 %.val26 to i64
  %59 = icmp slt i64 %indvars.iv.next60, %58
  br i1 %59, label %25, label %.critedge, !llvm.loop !9

.critedge:                                        ; preds = %.critedge2, %Vec_IntFill.exit
  %.0.lcssa = phi i32 [ 0, %Vec_IntFill.exit ], [ %57, %.critedge2 ]
  ret i32 %.0.lcssa
}